target datalayout = "e-m:e-p270:32:32-p271:32:32-p272:64:64-i64:64-i128:128-f80:128-n8:16:32:64-S128"
target triple = "x86_64-pc-linux-gnu"

; Function Attrs: nounwind uwtable
define hidden void @png_destroy_info_struct(ptr noalias noundef %0, ptr noundef %1) #0 {
  %3 = alloca ptr, align 8
  %4 = alloca ptr, align 8
  %5 = alloca ptr, align 8
  store ptr %0, ptr %3, align 8
  store ptr %1, ptr %4, align 8
  store ptr null, ptr %5, align 8
  %6 = load ptr, ptr %3, align 8
  %7 = icmp eq ptr %6, null
  br i1 %7, label %8, label %9

8:                                                ; preds = %2
  br label %25

9:                                                ; preds = %2
  %10 = load ptr, ptr %4, align 8
  %11 = icmp ne ptr %10, null
  br i1 %11, label %12, label %15

12:                                               ; preds = %9
  %13 = load ptr, ptr %4, align 8
  %14 = load ptr, ptr %13, align 8
  store ptr %14, ptr %5, align 8
  br label %15

15:                                               ; preds = %12, %9
  %16 = load ptr, ptr %5, align 8
  %17 = icmp ne ptr %16, null
  br i1 %17, label %18, label %25

18:                                               ; preds = %15
  %19 = load ptr, ptr %4, align 8
  store ptr null, ptr %19, align 8
  %20 = load ptr, ptr %3, align 8
  %21 = load ptr, ptr %5, align 8
  call void @png_free_data(ptr noundef %20, ptr noundef %21, i32 noundef 65535, i32 noundef -1)
  %22 = load ptr, ptr %5, align 8
  call void @llvm.memset.p0.i64(ptr align 8 %22, i8 0, i64 344, i1 false)
  %23 = load ptr, ptr %3, align 8
  %24 = load ptr, ptr %5, align 8
  call void @png_free(ptr noundef %23, ptr noundef %24)
  br label %25

25:                                               ; preds = %18, %15, %8
  ret void
}