; Function Attrs: nounwind uwtable
define hidden void @png_destroy_info_struct(ptr noalias noundef %0, ptr noundef %1) local_unnamed_addr #0 {
  %3 = icmp eq ptr %0, null
  %.not = icmp eq ptr %1, null
  %or.cond = or i1 %3, %.not
  br i1 %or.cond, label %.thread, label %4

4:                                                ; preds = %2
  %5 = load ptr, ptr %1, align 8
  %.not12 = icmp eq ptr %5, null
  br i1 %.not12, label %.thread, label %6

6:                                                ; preds = %4
  store ptr null, ptr %1, align 8
  tail call void @png_free_data(ptr noundef nonnull %0, ptr noundef nonnull %5, i32 noundef 65535, i32 noundef -1)
  tail call void @llvm.memset.p0.i64(ptr noundef nonnull align 8 dereferenceable(344) %5, i8 0, i64 344, i1 false)
  tail call void @png_free(ptr noundef nonnull %0, ptr noundef nonnull %5) #29
  br label %.thread

.thread:                                          ; preds = %2, %6, %4
  ret void
}